; ModuleID = '24/1100.c'
source_filename = "24/1100.c"
target datalayout = "e-m:e-p270:32:32-p271:32:32-p272:64:64-i64:64-f80:128-n8:16:32:64-S128"
target triple = "x86_64-pc-linux-gnu"

@.str = private unnamed_addr constant [7 x i8] c"%s\0A%s\0A\00", align 1

; Function Attrs: noinline nounwind uwtable
define dso_local i32 @main() #0 {
  %1 = alloca i32, align 4
  %2 = alloca [1000 x i8], align 16
  %3 = alloca i32, align 4
  %4 = alloca i32, align 4
  %5 = alloca i32, align 4
  %6 = alloca i32, align 4
  %7 = alloca i32, align 4
  %8 = alloca i32, align 4
  %9 = alloca [50 x [50 x i8]], align 16
  %10 = alloca i32, align 4
  %11 = alloca i32, align 4
  store i32 0, i32* %1, align 4
  %12 = bitcast [1000 x i8]* %2 to i8*
  call void @llvm.memset.p0i8.i64(i8* align 16 %12, i8 0, i64 1000, i1 false)
  %13 = getelementptr inbounds [1000 x i8], [1000 x i8]* %2, i64 0, i64 0
  %14 = call i32 (i8*, ...) bitcast (i32 (...)* @gets to i32 (i8*, ...)*)(i8* %13)
  store i32 1, i32* %5, align 4
  store i32 0, i32* %8, align 4
  %15 = getelementptr inbounds [1000 x i8], [1000 x i8]* %2, i64 0, i64 0
  %16 = call i64 @strlen(i8* %15) #4
  %17 = trunc i64 %16 to i32
  store i32 %17, i32* %3, align 4
  %18 = bitcast [50 x [50 x i8]]* %9 to i8*
  call void @llvm.memset.p0i8.i64(i8* align 16 %18, i8 0, i64 2500, i1 false)
  store i32 0, i32* %6, align 4
  br label %19

19:                                               ; preds = %62, %0
  %20 = load i32, i32* %8, align 4
  %21 = load i32, i32* %3, align 4
  %22 = icmp slt i32 %20, %21
  br i1 %22, label %23, label %65

23:                                               ; preds = %19
  store i32 0, i32* %7, align 4
  br label %24

24:                                               ; preds = %58, %23
  %25 = load i32, i32* %8, align 4
  %26 = load i32, i32* %3, align 4
  %27 = icmp slt i32 %25, %26
  %28 = zext i1 %27 to i32
  store i32 %28, i32* %5, align 4
  br i1 %27, label %29, label %61

29:                                               ; preds = %24
  %30 = load i32, i32* %6, align 4
  store i32 %30, i32* %4, align 4
  %31 = load i32, i32* %8, align 4
  %32 = add nsw i32 %31, 1
  store i32 %32, i32* %8, align 4
  %33 = load i32, i32* %8, align 4
  %34 = sub nsw i32 %33, 1
  %35 = sext i32 %34 to i64
  %36 = getelementptr inbounds [1000 x i8], [1000 x i8]* %2, i64 0, i64 %35
  %37 = load i8, i8* %36, align 1
  %38 = sext i8 %37 to i32
  %39 = icmp eq i32 %38, 32
  br i1 %39, label %40, label %41

40:                                               ; preds = %29
  store i32 0, i32* %5, align 4
  br label %41

41:                                               ; preds = %40, %29
  %42 = load i32, i32* %5, align 4
  %43 = icmp ne i32 %42, 0
  br i1 %43, label %44, label %56

44:                                               ; preds = %41
  %45 = load i32, i32* %8, align 4
  %46 = sub nsw i32 %45, 1
  %47 = sext i32 %46 to i64
  %48 = getelementptr inbounds [1000 x i8], [1000 x i8]* %2, i64 0, i64 %47
  %49 = load i8, i8* %48, align 1
  %50 = load i32, i32* %6, align 4
  %51 = sext i32 %50 to i64
  %52 = getelementptr inbounds [50 x [50 x i8]], [50 x [50 x i8]]* %9, i64 0, i64 %51
  %53 = load i32, i32* %7, align 4
  %54 = sext i32 %53 to i64
  %55 = getelementptr inbounds [50 x i8], [50 x i8]* %52, i64 0, i64 %54
  store i8 %49, i8* %55, align 1
  br label %57

56:                                               ; preds = %41
  br label %61

57:                                               ; preds = %44
  br label %58

58:                                               ; preds = %57
  %59 = load i32, i32* %7, align 4
  %60 = add nsw i32 %59, 1
  store i32 %60, i32* %7, align 4
  br label %24

61:                                               ; preds = %56, %24
  br label %62

62:                                               ; preds = %61
  %63 = load i32, i32* %6, align 4
  %64 = add nsw i32 %63, 1
  store i32 %64, i32* %6, align 4
  br label %19

65:                                               ; preds = %19
  store i32 0, i32* %10, align 4
  store i32 0, i32* %11, align 4
  store i32 0, i32* %6, align 4
  br label %66

66:                                               ; preds = %103, %65
  %67 = load i32, i32* %6, align 4
  %68 = load i32, i32* %4, align 4
  %69 = icmp slt i32 %67, %68
  br i1 %69, label %70, label %106

70:                                               ; preds = %66
  %71 = load i32, i32* %10, align 4
  %72 = sext i32 %71 to i64
  %73 = getelementptr inbounds [50 x [50 x i8]], [50 x [50 x i8]]* %9, i64 0, i64 %72
  %74 = getelementptr inbounds [50 x i8], [50 x i8]* %73, i64 0, i64 0
  %75 = call i64 @strlen(i8* %74) #4
  %76 = load i32, i32* %6, align 4
  %77 = add nsw i32 %76, 1
  %78 = sext i32 %77 to i64
  %79 = getelementptr inbounds [50 x [50 x i8]], [50 x [50 x i8]]* %9, i64 0, i64 %78
  %80 = getelementptr inbounds [50 x i8], [50 x i8]* %79, i64 0, i64 0
  %81 = call i64 @strlen(i8* %80) #4
  %82 = icmp ult i64 %75, %81
  br i1 %82, label %83, label %86

83:                                               ; preds = %70
  %84 = load i32, i32* %6, align 4
  %85 = add nsw i32 %84, 1
  store i32 %85, i32* %10, align 4
  br label %86

86:                                               ; preds = %83, %70
  %87 = load i32, i32* %11, align 4
  %88 = sext i32 %87 to i64
  %89 = getelementptr inbounds [50 x [50 x i8]], [50 x [50 x i8]]* %9, i64 0, i64 %88
  %90 = getelementptr inbounds [50 x i8], [50 x i8]* %89, i64 0, i64 0
  %91 = call i64 @strlen(i8* %90) #4
  %92 = load i32, i32* %6, align 4
  %93 = add nsw i32 %92, 1
  %94 = sext i32 %93 to i64
  %95 = getelementptr inbounds [50 x [50 x i8]], [50 x [50 x i8]]* %9, i64 0, i64 %94
  %96 = getelementptr inbounds [50 x i8], [50 x i8]* %95, i64 0, i64 0
  %97 = call i64 @strlen(i8* %96) #4
  %98 = icmp ugt i64 %91, %97
  br i1 %98, label %99, label %102

99:                                               ; preds = %86
  %100 = load i32, i32* %6, align 4
  %101 = add nsw i32 %100, 1
  store i32 %101, i32* %11, align 4
  br label %102

102:                                              ; preds = %99, %86
  br label %103

103:                                              ; preds = %102
  %104 = load i32, i32* %6, align 4
  %105 = add nsw i32 %104, 1
  store i32 %105, i32* %6, align 4
  br label %66

106:                                              ; preds = %66
  %107 = load i32, i32* %10, align 4
  %108 = sext i32 %107 to i64
  %109 = getelementptr inbounds [50 x [50 x i8]], [50 x [50 x i8]]* %9, i64 0, i64 %108
  %110 = getelementptr inbounds [50 x i8], [50 x i8]* %109, i64 0, i64 0
  %111 = load i32, i32* %11, align 4
  %112 = sext i32 %111 to i64
  %113 = getelementptr inbounds [50 x [50 x i8]], [50 x [50 x i8]]* %9, i64 0, i64 %112
  %114 = getelementptr inbounds [50 x i8], [50 x i8]* %113, i64 0, i64 0
  %115 = call i32 (i8*, ...) @printf(i8* getelementptr inbounds ([7 x i8], [7 x i8]* @.str, i64 0, i64 0), i8* %110, i8* %114)
  ret i32 0
}

; Function Attrs: argmemonly nounwind willreturn
declare void @llvm.memset.p0i8.i64(i8* nocapture writeonly, i8, i64, i1 immarg) #1

declare dso_local i32 @gets(...) #2

; Function Attrs: nounwind readonly
declare dso_local i64 @strlen(i8*) #3

declare dso_local i32 @printf(i8*, ...) #2


!llvm.module.flags = !{!0}
!llvm.ident = !{!1}

!0 = !{i32 1, !"wchar_size", i32 4}
!1 = !{!"clang version 10.0.0-4ubuntu1 "}
